target datalayout = "e-m:e-p270:32:32-p271:32:32-p272:64:64-i64:64-i128:128-f80:128-n8:16:32:64-S128"
target triple = "x86_64-pc-linux-gnu"

; Function Attrs: nounwind uwtable
define internal i64 @_out_rev(ptr noundef %0, ptr noundef %1, i64 noundef %2, i64 noundef %3, ptr noundef %4, i64 noundef %5, i32 noundef %6, i32 noundef %7) #0 {
  %9 = alloca ptr, align 8
  %10 = alloca ptr, align 8
  %11 = alloca i64, align 8
  %12 = alloca i64, align 8
  %13 = alloca ptr, align 8
  %14 = alloca i64, align 8
  %15 = alloca i32, align 4
  %16 = alloca i32, align 4
  %17 = alloca i64, align 8
  %18 = alloca i64, align 8
  store ptr %0, ptr %9, align 8, !tbaa !12
  store ptr %1, ptr %10, align 8, !tbaa !3
  store i64 %2, ptr %11, align 8, !tbaa !8
  store i64 %3, ptr %12, align 8, !tbaa !8
  store ptr %4, ptr %13, align 8, !tbaa !3
  store i64 %5, ptr %14, align 8, !tbaa !8
  store i32 %6, ptr %15, align 4, !tbaa !10
  store i32 %7, ptr %16, align 4, !tbaa !10
  call void @llvm.lifetime.start.p0(i64 8, ptr %17) #5
  %19 = load i64, ptr %11, align 8, !tbaa !8
  store i64 %19, ptr %17, align 8, !tbaa !8
  %20 = load i32, ptr %16, align 4, !tbaa !10
  %21 = and i32 %20, 2
  %22 = icmp ne i32 %21, 0
  br i1 %22, label %44, label %23

23:                                               ; preds = %8
  %24 = load i32, ptr %16, align 4, !tbaa !10
  %25 = and i32 %24, 1
  %26 = icmp ne i32 %25, 0
  br i1 %26, label %44, label %27

27:                                               ; preds = %23
  call void @llvm.lifetime.start.p0(i64 8, ptr %18) #5
  %28 = load i64, ptr %14, align 8, !tbaa !8
  store i64 %28, ptr %18, align 8, !tbaa !8
  br label %29

29:                                               ; preds = %40, %27
  %30 = load i64, ptr %18, align 8, !tbaa !8
  %31 = load i32, ptr %15, align 4, !tbaa !10
  %32 = zext i32 %31 to i64
  %33 = icmp ult i64 %30, %32
  br i1 %33, label %34, label %43

34:                                               ; preds = %29
  %35 = load ptr, ptr %9, align 8, !tbaa !12
  %36 = load ptr, ptr %10, align 8, !tbaa !3
  %37 = load i64, ptr %11, align 8, !tbaa !8
  %38 = add i64 %37, 1
  store i64 %38, ptr %11, align 8, !tbaa !8
  %39 = load i64, ptr %12, align 8, !tbaa !8
  call void %35(i8 noundef signext 32, ptr noundef %36, i64 noundef %37, i64 noundef %39)
  br label %40

40:                                               ; preds = %34
  %41 = load i64, ptr %18, align 8, !tbaa !8
  %42 = add i64 %41, 1
  store i64 %42, ptr %18, align 8, !tbaa !8
  br label %29, !llvm.loop !49

43:                                               ; preds = %29
  call void @llvm.lifetime.end.p0(i64 8, ptr %18) #5
  br label %44

44:                                               ; preds = %43, %23, %8
  br label %45

45:                                               ; preds = %48, %44
  %46 = load i64, ptr %14, align 8, !tbaa !8
  %47 = icmp ne i64 %46, 0
  br i1 %47, label %48, label %59

48:                                               ; preds = %45
  %49 = load ptr, ptr %9, align 8, !tbaa !12
  %50 = load ptr, ptr %13, align 8, !tbaa !3
  %51 = load i64, ptr %14, align 8, !tbaa !8
  %52 = add i64 %51, -1
  store i64 %52, ptr %14, align 8, !tbaa !8
  %53 = getelementptr inbounds nuw i8, ptr %50, i64 %52
  %54 = load i8, ptr %53, align 1, !tbaa !15
  %55 = load ptr, ptr %10, align 8, !tbaa !3
  %56 = load i64, ptr %11, align 8, !tbaa !8
  %57 = add i64 %56, 1
  store i64 %57, ptr %11, align 8, !tbaa !8
  %58 = load i64, ptr %12, align 8, !tbaa !8
  call void %49(i8 noundef signext %54, ptr noundef %55, i64 noundef %56, i64 noundef %58)
  br label %45, !llvm.loop !50

59:                                               ; preds = %45
  %60 = load i32, ptr %16, align 4, !tbaa !10
  %61 = and i32 %60, 2
  %62 = icmp ne i32 %61, 0
  br i1 %62, label %63, label %78

63:                                               ; preds = %59
  br label %64

64:                                               ; preds = %71, %63
  %65 = load i64, ptr %11, align 8, !tbaa !8
  %66 = load i64, ptr %17, align 8, !tbaa !8
  %67 = sub i64 %65, %66
  %68 = load i32, ptr %15, align 4, !tbaa !10
  %69 = zext i32 %68 to i64
  %70 = icmp ult i64 %67, %69
  br i1 %70, label %71, label %77

71:                                               ; preds = %64
  %72 = load ptr, ptr %9, align 8, !tbaa !12
  %73 = load ptr, ptr %10, align 8, !tbaa !3
  %74 = load i64, ptr %11, align 8, !tbaa !8
  %75 = add i64 %74, 1
  store i64 %75, ptr %11, align 8, !tbaa !8
  %76 = load i64, ptr %12, align 8, !tbaa !8
  call void %72(i8 noundef signext 32, ptr noundef %73, i64 noundef %74, i64 noundef %76)
  br label %64, !llvm.loop !51

77:                                               ; preds = %64
  br label %78

78:                                               ; preds = %77, %59
  %79 = load i64, ptr %11, align 8, !tbaa !8
  call void @llvm.lifetime.end.p0(i64 8, ptr %17) #5
  ret i64 %79
}

; Function Attrs: nounwind uwtable
define internal i64 @_ntoa_format(ptr noundef %0, ptr noundef %1, i64 noundef %2, i64 noundef %3, ptr noundef %4, i64 noundef %5, i1 noundef zeroext %6, i32 noundef %7, i32 noundef %8, i32 noundef %9, i32 noundef %10) #0 {
  %12 = alloca ptr, align 8
  %13 = alloca ptr, align 8
  %14 = alloca i64, align 8
  %15 = alloca i64, align 8
  %16 = alloca ptr, align 8
  %17 = alloca i64, align 8
  %18 = alloca i8, align 1
  %19 = alloca i32, align 4
  %20 = alloca i32, align 4
  %21 = alloca i32, align 4
  %22 = alloca i32, align 4
  store ptr %0, ptr %12, align 8, !tbaa !12
  store ptr %1, ptr %13, align 8, !tbaa !3
  store i64 %2, ptr %14, align 8, !tbaa !8
  store i64 %3, ptr %15, align 8, !tbaa !8
  store ptr %4, ptr %16, align 8, !tbaa !3
  store i64 %5, ptr %17, align 8, !tbaa !8
  %23 = zext i1 %6 to i8
  store i8 %23, ptr %18, align 1, !tbaa !34
  store i32 %7, ptr %19, align 4, !tbaa !10
  store i32 %8, ptr %20, align 4, !tbaa !10
  store i32 %9, ptr %21, align 4, !tbaa !10
  store i32 %10, ptr %22, align 4, !tbaa !10
  %24 = load i32, ptr %22, align 4, !tbaa !10
  %25 = and i32 %24, 2
  %26 = icmp ne i32 %25, 0
  br i1 %26, label %81, label %27

27:                                               ; preds = %11
  %28 = load i32, ptr %21, align 4, !tbaa !10
  %29 = icmp ne i32 %28, 0
  br i1 %29, label %30, label %44

30:                                               ; preds = %27
  %31 = load i32, ptr %22, align 4, !tbaa !10
  %32 = and i32 %31, 1
  %33 = icmp ne i32 %32, 0
  br i1 %33, label %34, label %44

34:                                               ; preds = %30
  %35 = load i8, ptr %18, align 1, !tbaa !34, !range !37, !noundef !38
  %36 = trunc i8 %35 to i1
  br i1 %36, label %41, label %37

37:                                               ; preds = %34
  %38 = load i32, ptr %22, align 4, !tbaa !10
  %39 = and i32 %38, 12
  %40 = icmp ne i32 %39, 0
  br i1 %40, label %41, label %44

41:                                               ; preds = %37, %34
  %42 = load i32, ptr %21, align 4, !tbaa !10
  %43 = add i32 %42, -1
  store i32 %43, ptr %21, align 4, !tbaa !10
  br label %44

44:                                               ; preds = %41, %37, %30, %27
  br label %45

45:                                               ; preds = %55, %44
  %46 = load i64, ptr %17, align 8, !tbaa !8
  %47 = load i32, ptr %20, align 4, !tbaa !10
  %48 = zext i32 %47 to i64
  %49 = icmp ult i64 %46, %48
  br i1 %49, label %50, label %53

50:                                               ; preds = %45
  %51 = load i64, ptr %17, align 8, !tbaa !8
  %52 = icmp ult i64 %51, 32
  br label %53

53:                                               ; preds = %50, %45
  %54 = phi i1 [ false, %45 ], [ %52, %50 ]
  br i1 %54, label %55, label %60

55:                                               ; preds = %53
  %56 = load ptr, ptr %16, align 8, !tbaa !3
  %57 = load i64, ptr %17, align 8, !tbaa !8
  %58 = add i64 %57, 1
  store i64 %58, ptr %17, align 8, !tbaa !8
  %59 = getelementptr inbounds nuw i8, ptr %56, i64 %57
  store i8 48, ptr %59, align 1, !tbaa !15
  br label %45, !llvm.loop !47

60:                                               ; preds = %53
  br label %61

61:                                               ; preds = %75, %60
  %62 = load i32, ptr %22, align 4, !tbaa !10
  %63 = and i32 %62, 1
  %64 = icmp ne i32 %63, 0
  br i1 %64, label %65, label %73

65:                                               ; preds = %61
  %66 = load i64, ptr %17, align 8, !tbaa !8
  %67 = load i32, ptr %21, align 4, !tbaa !10
  %68 = zext i32 %67 to i64
  %69 = icmp ult i64 %66, %68
  br i1 %69, label %70, label %73

70:                                               ; preds = %65
  %71 = load i64, ptr %17, align 8, !tbaa !8
  %72 = icmp ult i64 %71, 32
  br label %73

73:                                               ; preds = %70, %65, %61
  %74 = phi i1 [ false, %65 ], [ false, %61 ], [ %72, %70 ]
  br i1 %74, label %75, label %80

75:                                               ; preds = %73
  %76 = load ptr, ptr %16, align 8, !tbaa !3
  %77 = load i64, ptr %17, align 8, !tbaa !8
  %78 = add i64 %77, 1
  store i64 %78, ptr %17, align 8, !tbaa !8
  %79 = getelementptr inbounds nuw i8, ptr %76, i64 %77
  store i8 48, ptr %79, align 1, !tbaa !15
  br label %61, !llvm.loop !48

80:                                               ; preds = %73
  br label %81

81:                                               ; preds = %80, %11
  %82 = load i32, ptr %22, align 4, !tbaa !10
  %83 = and i32 %82, 16
  %84 = icmp ne i32 %83, 0
  br i1 %84, label %85, label %166

85:                                               ; preds = %81
  %86 = load i32, ptr %22, align 4, !tbaa !10
  %87 = and i32 %86, 1024
  %88 = icmp ne i32 %87, 0
  br i1 %88, label %114, label %89

89:                                               ; preds = %85
  %90 = load i64, ptr %17, align 8, !tbaa !8
  %91 = icmp ne i64 %90, 0
  br i1 %91, label %92, label %114

92:                                               ; preds = %89
  %93 = load i64, ptr %17, align 8, !tbaa !8
  %94 = load i32, ptr %20, align 4, !tbaa !10
  %95 = zext i32 %94 to i64
  %96 = icmp eq i64 %93, %95
  br i1 %96, label %102, label %97

97:                                               ; preds = %92
  %98 = load i64, ptr %17, align 8, !tbaa !8
  %99 = load i32, ptr %21, align 4, !tbaa !10
  %100 = zext i32 %99 to i64
  %101 = icmp eq i64 %98, %100
  br i1 %101, label %102, label %114

102:                                              ; preds = %97, %92
  %103 = load i64, ptr %17, align 8, !tbaa !8
  %104 = add i64 %103, -1
  store i64 %104, ptr %17, align 8, !tbaa !8
  %105 = load i64, ptr %17, align 8, !tbaa !8
  %106 = icmp ne i64 %105, 0
  br i1 %106, label %107, label %113

107:                                              ; preds = %102
  %108 = load i32, ptr %19, align 4, !tbaa !10
  %109 = icmp eq i32 %108, 16
  br i1 %109, label %110, label %113

110:                                              ; preds = %107
  %111 = load i64, ptr %17, align 8, !tbaa !8
  %112 = add i64 %111, -1
  store i64 %112, ptr %17, align 8, !tbaa !8
  br label %113

113:                                              ; preds = %110, %107, %102
  br label %114

114:                                              ; preds = %113, %97, %89, %85
  %115 = load i32, ptr %19, align 4, !tbaa !10
  %116 = icmp eq i32 %115, 16
  br i1 %116, label %117, label %129

117:                                              ; preds = %114
  %118 = load i32, ptr %22, align 4, !tbaa !10
  %119 = and i32 %118, 32
  %120 = icmp ne i32 %119, 0
  br i1 %120, label %129, label %121

121:                                              ; preds = %117
  %122 = load i64, ptr %17, align 8, !tbaa !8
  %123 = icmp ult i64 %122, 32
  br i1 %123, label %124, label %129

124:                                              ; preds = %121
  %125 = load ptr, ptr %16, align 8, !tbaa !3
  %126 = load i64, ptr %17, align 8, !tbaa !8
  %127 = add i64 %126, 1
  store i64 %127, ptr %17, align 8, !tbaa !8
  %128 = getelementptr inbounds nuw i8, ptr %125, i64 %126
  store i8 120, ptr %128, align 1, !tbaa !15
  br label %157

129:                                              ; preds = %121, %117, %114
  %130 = load i32, ptr %19, align 4, !tbaa !10
  %131 = icmp eq i32 %130, 16
  br i1 %131, label %132, label %144

132:                                              ; preds = %129
  %133 = load i32, ptr %22, align 4, !tbaa !10
  %134 = and i32 %133, 32
  %135 = icmp ne i32 %134, 0
  br i1 %135, label %136, label %144

136:                                              ; preds = %132
  %137 = load i64, ptr %17, align 8, !tbaa !8
  %138 = icmp ult i64 %137, 32
  br i1 %138, label %139, label %144

139:                                              ; preds = %136
  %140 = load ptr, ptr %16, align 8, !tbaa !3
  %141 = load i64, ptr %17, align 8, !tbaa !8
  %142 = add i64 %141, 1
  store i64 %142, ptr %17, align 8, !tbaa !8
  %143 = getelementptr inbounds nuw i8, ptr %140, i64 %141
  store i8 88, ptr %143, align 1, !tbaa !15
  br label %156

144:                                              ; preds = %136, %132, %129
  %145 = load i32, ptr %19, align 4, !tbaa !10
  %146 = icmp eq i32 %145, 2
  br i1 %146, label %147, label %155

147:                                              ; preds = %144
  %148 = load i64, ptr %17, align 8, !tbaa !8
  %149 = icmp ult i64 %148, 32
  br i1 %149, label %150, label %155

150:                                              ; preds = %147
  %151 = load ptr, ptr %16, align 8, !tbaa !3
  %152 = load i64, ptr %17, align 8, !tbaa !8
  %153 = add i64 %152, 1
  store i64 %153, ptr %17, align 8, !tbaa !8
  %154 = getelementptr inbounds nuw i8, ptr %151, i64 %152
  store i8 98, ptr %154, align 1, !tbaa !15
  br label %155

155:                                              ; preds = %150, %147, %144
  br label %156

156:                                              ; preds = %155, %139
  br label %157

157:                                              ; preds = %156, %124
  %158 = load i64, ptr %17, align 8, !tbaa !8
  %159 = icmp ult i64 %158, 32
  br i1 %159, label %160, label %165

160:                                              ; preds = %157
  %161 = load ptr, ptr %16, align 8, !tbaa !3
  %162 = load i64, ptr %17, align 8, !tbaa !8
  %163 = add i64 %162, 1
  store i64 %163, ptr %17, align 8, !tbaa !8
  %164 = getelementptr inbounds nuw i8, ptr %161, i64 %162
  store i8 48, ptr %164, align 1, !tbaa !15
  br label %165

165:                                              ; preds = %160, %157
  br label %166

166:                                              ; preds = %165, %81
  %167 = load i64, ptr %17, align 8, !tbaa !8
  %168 = icmp ult i64 %167, 32
  br i1 %168, label %169, label %198

169:                                              ; preds = %166
  %170 = load i8, ptr %18, align 1, !tbaa !34, !range !37, !noundef !38
  %171 = trunc i8 %170 to i1
  br i1 %171, label %172, label %177

172:                                              ; preds = %169
  %173 = load ptr, ptr %16, align 8, !tbaa !3
  %174 = load i64, ptr %17, align 8, !tbaa !8
  %175 = add i64 %174, 1
  store i64 %175, ptr %17, align 8, !tbaa !8
  %176 = getelementptr inbounds nuw i8, ptr %173, i64 %174
  store i8 45, ptr %176, align 1, !tbaa !15
  br label %197

177:                                              ; preds = %169
  %178 = load i32, ptr %22, align 4, !tbaa !10
  %179 = and i32 %178, 4
  %180 = icmp ne i32 %179, 0
  br i1 %180, label %181, label %186

181:                                              ; preds = %177
  %182 = load ptr, ptr %16, align 8, !tbaa !3
  %183 = load i64, ptr %17, align 8, !tbaa !8
  %184 = add i64 %183, 1
  store i64 %184, ptr %17, align 8, !tbaa !8
  %185 = getelementptr inbounds nuw i8, ptr %182, i64 %183
  store i8 43, ptr %185, align 1, !tbaa !15
  br label %196

186:                                              ; preds = %177
  %187 = load i32, ptr %22, align 4, !tbaa !10
  %188 = and i32 %187, 8
  %189 = icmp ne i32 %188, 0
  br i1 %189, label %190, label %195

190:                                              ; preds = %186
  %191 = load ptr, ptr %16, align 8, !tbaa !3
  %192 = load i64, ptr %17, align 8, !tbaa !8
  %193 = add i64 %192, 1
  store i64 %193, ptr %17, align 8, !tbaa !8
  %194 = getelementptr inbounds nuw i8, ptr %191, i64 %192
  store i8 32, ptr %194, align 1, !tbaa !15
  br label %195

195:                                              ; preds = %190, %186
  br label %196

196:                                              ; preds = %195, %181
  br label %197

197:                                              ; preds = %196, %172
  br label %198

198:                                              ; preds = %197, %166
  %199 = load ptr, ptr %12, align 8, !tbaa !12
  %200 = load ptr, ptr %13, align 8, !tbaa !3
  %201 = load i64, ptr %14, align 8, !tbaa !8
  %202 = load i64, ptr %15, align 8, !tbaa !8
  %203 = load ptr, ptr %16, align 8, !tbaa !3
  %204 = load i64, ptr %17, align 8, !tbaa !8
  %205 = load i32, ptr %21, align 4, !tbaa !10
  %206 = load i32, ptr %22, align 4, !tbaa !10
  %207 = call i64 @_out_rev(ptr noundef %199, ptr noundef %200, i64 noundef %201, i64 noundef %202, ptr noundef %203, i64 noundef %204, i32 noundef %205, i32 noundef %206)
  ret i64 %207
}