; Function Attrs: nounwind uwtable
define internal fastcc noundef i64 @_ntoa_format(ptr noundef readonly captures(none) %0, ptr noundef %1, i64 noundef %2, i64 noundef %3, ptr noundef nonnull captures(none) %4, i64 noundef %5, i1 noundef zeroext %6, i32 noundef range(i32 2, 17) %7, i32 noundef %8, i32 noundef %9, i32 noundef %10) unnamed_addr #0 {
  %12 = and i32 %10, 2
  %.not = icmp eq i32 %12, 0
  br i1 %.not, label %13, label %.critedge

13:                                               ; preds = %11
  %.not78 = icmp eq i32 %9, 0
  br i1 %.not78, label %19, label %14

14:                                               ; preds = %13
  %15 = and i32 %10, 1
  %.not79 = icmp eq i32 %15, 0
  br i1 %.not79, label %19, label %16

16:                                               ; preds = %14
  %17 = and i32 %10, 12
  %.not80 = icmp ne i32 %17, 0
  %or.cond86.not = or i1 %6, %.not80
  %18 = sext i1 %or.cond86.not to i32
  %spec.select91 = add i32 %9, %18
  br label %19

19:                                               ; preds = %16, %14, %13
  %.174 = phi i32 [ %9, %14 ], [ 0, %13 ], [ %spec.select91, %16 ]
  %20 = tail call i32 @llvm.umin.i32(i32 %8, i32 32)
  %invariant.umin = zext nneg i32 %20 to i64
  %21 = icmp ult i64 %5, %invariant.umin
  br i1 %21, label %.lr.ph.preheader, label %.preheader

.lr.ph.preheader:                                 ; preds = %19
  %scevgep = getelementptr i8, ptr %4, i64 %5
  %22 = sub nuw nsw i64 %invariant.umin, %5
  tail call void @llvm.memset.p0.i64(ptr align 1 %scevgep, i8 48, i64 %22, i1 false), !tbaa !3
  br label %.preheader

.preheader:                                       ; preds = %.lr.ph.preheader, %19
  %.1.lcssa = phi i64 [ %5, %19 ], [ %invariant.umin, %.lr.ph.preheader ]
  %23 = and i32 %10, 1
  %.not81 = icmp eq i32 %23, 0
  br i1 %.not81, label %.critedge, label %.lr.ph98

.lr.ph98:                                         ; preds = %.preheader
  %24 = tail call i32 @llvm.umin.i32(i32 %.174, i32 32)
  %invariant.umin102 = zext nneg i32 %24 to i64
  %or.cond11104 = icmp ult i64 %.1.lcssa, %invariant.umin102
  br i1 %or.cond11104, label %.lr.ph106.preheader, label %.critedge

.lr.ph106.preheader:                              ; preds = %.lr.ph98
  %scevgep112 = getelementptr i8, ptr %4, i64 %.1.lcssa
  %25 = sub nuw nsw i64 %invariant.umin102, %.1.lcssa
  tail call void @llvm.memset.p0.i64(ptr align 1 %scevgep112, i8 48, i64 %25, i1 false), !tbaa !3
  br label %.critedge

.critedge:                                        ; preds = %.lr.ph106.preheader, %.preheader, %.lr.ph98, %11
  %.073 = phi i32 [ %9, %11 ], [ %.174, %.lr.ph98 ], [ %.174, %.preheader ], [ %.174, %.lr.ph106.preheader ]
  %.0 = phi i64 [ %5, %11 ], [ %.1.lcssa, %.lr.ph98 ], [ %.1.lcssa, %.preheader ], [ %invariant.umin102, %.lr.ph106.preheader ]
  %26 = and i32 %10, 16
  %.not82 = icmp eq i32 %26, 0
  br i1 %.not82, label %57, label %27

27:                                               ; preds = %.critedge
  %28 = and i32 %10, 1024
  %29 = icmp eq i32 %28, 0
  %30 = icmp ne i64 %.0, 0
  %or.cond = and i1 %29, %30
  br i1 %or.cond, label %31, label %41

31:                                               ; preds = %27
  %32 = zext i32 %8 to i64
  %33 = icmp eq i64 %.0, %32
  %34 = zext i32 %.073 to i64
  %35 = icmp eq i64 %.0, %34
  %or.cond88 = or i1 %33, %35
  br i1 %or.cond88, label %36, label %41

36:                                               ; preds = %31
  %37 = add nsw i64 %.0, -1
  %38 = icmp ne i64 %37, 0
  %39 = icmp eq i32 %7, 16
  %or.cond3 = and i1 %39, %38
  %40 = add nsw i64 %.0, -2
  %spec.select = select i1 %or.cond3, i64 %40, i64 %37
  br label %41

41:                                               ; preds = %36, %31, %27
  %.4 = phi i64 [ %.0, %27 ], [ %.0, %31 ], [ %spec.select, %36 ]
  %42 = icmp eq i32 %7, 16
  br i1 %42, label %43, label %.critedge90

43:                                               ; preds = %41
  %44 = and i32 %10, 32
  %45 = icmp eq i32 %44, 0
  %46 = icmp ult i64 %.4, 32
  %or.cond5 = select i1 %45, i1 %46, i1 false
  br i1 %or.cond5, label %.critedge90.thread.sink.split, label %47

47:                                               ; preds = %43
  %48 = icmp ne i32 %44, 0
  %or.cond7 = select i1 %48, i1 %46, i1 false
  br i1 %or.cond7, label %.critedge90.thread.sink.split, label %.critedge90.thread

.critedge90:                                      ; preds = %41
  %49 = icmp eq i32 %7, 2
  %50 = icmp ult i64 %.4, 32
  %or.cond9 = select i1 %49, i1 %50, i1 false
  br i1 %or.cond9, label %.critedge90.thread.sink.split, label %.critedge90.thread

.critedge90.thread.sink.split:                    ; preds = %.critedge90, %47, %43
  %.sink = phi i8 [ 120, %43 ], [ 88, %47 ], [ 98, %.critedge90 ]
  %51 = add nuw nsw i64 %.4, 1
  %52 = getelementptr inbounds nuw i8, ptr %4, i64 %.4
  store i8 %.sink, ptr %52, align 1, !tbaa !3
  br label %.critedge90.thread

.critedge90.thread:                               ; preds = %.critedge90.thread.sink.split, %47, %.critedge90
  %.5 = phi i64 [ %.4, %.critedge90 ], [ %.4, %47 ], [ %51, %.critedge90.thread.sink.split ]
  %53 = icmp ult i64 %.5, 32
  br i1 %53, label %54, label %.thread

54:                                               ; preds = %.critedge90.thread
  %55 = add nuw nsw i64 %.5, 1
  %56 = getelementptr inbounds nuw i8, ptr %4, i64 %.5
  store i8 48, ptr %56, align 1, !tbaa !3
  br label %57

57:                                               ; preds = %54, %.critedge
  %.3 = phi i64 [ %55, %54 ], [ %.0, %.critedge ]
  %58 = icmp ult i64 %.3, 32
  br i1 %58, label %59, label %.thread

59:                                               ; preds = %57
  br i1 %6, label %.thread.sink.split, label %60

60:                                               ; preds = %59
  %61 = and i32 %10, 4
  %.not83 = icmp eq i32 %61, 0
  br i1 %.not83, label %62, label %.thread.sink.split

62:                                               ; preds = %60
  %63 = and i32 %10, 8
  %.not84 = icmp eq i32 %63, 0
  br i1 %.not84, label %.thread, label %.thread.sink.split

.thread.sink.split:                               ; preds = %62, %60, %59
  %.sink116 = phi i8 [ 45, %59 ], [ 43, %60 ], [ 32, %62 ]
  %64 = add nuw nsw i64 %.3, 1
  %65 = getelementptr inbounds nuw i8, ptr %4, i64 %.3
  store i8 %.sink116, ptr %65, align 1, !tbaa !3
  br label %.thread

.thread:                                          ; preds = %.thread.sink.split, %.critedge90.thread, %62, %57
  %.6 = phi i64 [ %.3, %62 ], [ %.3, %57 ], [ %.5, %.critedge90.thread ], [ %64, %.thread.sink.split ]
  %66 = and i32 %10, 3
  %or.cond.i = icmp eq i32 %66, 0
  br i1 %or.cond.i, label %.preheader30.i, label %.loopexit31.i

.preheader30.i:                                   ; preds = %.thread
  %67 = zext i32 %.073 to i64
  %68 = icmp ult i64 %.6, %67
  br i1 %68, label %.lr.ph.i, label %.loopexit31.i

.lr.ph.i:                                         ; preds = %.preheader30.i, %.lr.ph.i
  %.033.i = phi i64 [ %70, %.lr.ph.i ], [ %.6, %.preheader30.i ]
  %.132.i = phi i64 [ %69, %.lr.ph.i ], [ %2, %.preheader30.i ]
  %69 = add i64 %.132.i, 1
  tail call void %0(i8 noundef signext 32, ptr noundef %1, i64 noundef %.132.i, i64 noundef %3) #8, !callees !6
  %70 = add i64 %.033.i, 1
  %exitcond.not.i = icmp eq i64 %70, %67
  br i1 %exitcond.not.i, label %.loopexit31.i, label %.lr.ph.i, !llvm.loop !35

.loopexit31.i:                                    ; preds = %.lr.ph.i, %.preheader30.i, %.thread
  %.026.i = phi i64 [ %2, %.thread ], [ %2, %.preheader30.i ], [ %69, %.lr.ph.i ]
  %.not2934.i = icmp eq i64 %.6, 0
  br i1 %.not2934.i, label %._crit_edge.i, label %.lr.ph37.i

.lr.ph37.i:                                       ; preds = %.loopexit31.i, %.lr.ph37.i
  %.236.i = phi i64 [ %74, %.lr.ph37.i ], [ %.026.i, %.loopexit31.i ]
  %.02735.i = phi i64 [ %71, %.lr.ph37.i ], [ %.6, %.loopexit31.i ]
  %71 = add i64 %.02735.i, -1
  %72 = getelementptr inbounds nuw i8, ptr %4, i64 %71
  %73 = load i8, ptr %72, align 1, !tbaa !3
  %74 = add i64 %.236.i, 1
  tail call void %0(i8 noundef signext %73, ptr noundef %1, i64 noundef %.236.i, i64 noundef %3) #8, !callees !6
  %.not29.i = icmp eq i64 %71, 0
  br i1 %.not29.i, label %._crit_edge.i, label %.lr.ph37.i, !llvm.loop !36

._crit_edge.i:                                    ; preds = %.lr.ph37.i, %.loopexit31.i
  %.2.lcssa.i = phi i64 [ %.026.i, %.loopexit31.i ], [ %74, %.lr.ph37.i ]
  br i1 %.not, label %_out_rev.exit, label %.preheader.i

.preheader.i:                                     ; preds = %._crit_edge.i
  %75 = zext i32 %.073 to i64
  %76 = sub i64 %.2.lcssa.i, %2
  %77 = icmp ult i64 %76, %75
  br i1 %77, label %.lr.ph40.i, label %_out_rev.exit

.lr.ph40.i:                                       ; preds = %.preheader.i, %.lr.ph40.i
  %.439.i = phi i64 [ %78, %.lr.ph40.i ], [ %.2.lcssa.i, %.preheader.i ]
  %78 = add i64 %.439.i, 1
  tail call void %0(i8 noundef signext 32, ptr noundef %1, i64 noundef %.439.i, i64 noundef %3) #8, !callees !6
  %79 = sub i64 %78, %2
  %80 = icmp ult i64 %79, %75
  br i1 %80, label %.lr.ph40.i, label %_out_rev.exit, !llvm.loop !37

_out_rev.exit:                                    ; preds = %.lr.ph40.i, %._crit_edge.i, %.preheader.i
  %.3.i = phi i64 [ %.2.lcssa.i, %._crit_edge.i ], [ %.2.lcssa.i, %.preheader.i ], [ %78, %.lr.ph40.i ]
  ret i64 %.3.i
}